target datalayout = "e-m:e-p270:32:32-p271:32:32-p272:64:64-i64:64-i128:128-f80:128-n8:16:32:64-S128"
target triple = "x86_64-pc-linux-gnu"

%struct.DdManager = type { %struct.DdNode, ptr, ptr, ptr, ptr, ptr, ptr, ptr, i32, i32, double, double, double, i32, i32, i32, i32, i32, i32, ptr, ptr, %struct.DdSubtable, i32, i32, i32, i32, i32, i32, i32, double, i32, i32, i32, ptr, i64, double, i32, ptr, ptr, ptr, ptr, ptr, ptr, ptr, i32, ptr, ptr, ptr, ptr, ptr, ptr, i32, i32, i32, double, i32, i32, i32, i32, double, double, i32, i32, i32, i32, i32, i32, i32, i32, i32, ptr, ptr, i32, i32, i32, i32, i32, i32, ptr, ptr, ptr, ptr, ptr, ptr, ptr, ptr, i32, i64, i64, i64, i32, i64, i64, double, double, double, double, double, double, i32, ptr, ptr, i64 }
%struct.DdNode = type { i32, i32, ptr, %union.anon, i64 }
%union.anon = type { %struct.DdChildren }
%struct.DdChildren = type { ptr, ptr }
%struct.DdSubtable = type { ptr, i32, i32, i32, i32, i32, i32, i32, i32, i32, i32, i32 }

; Function Attrs: nounwind uwtable
define ptr @Cudd_SupportIndex(ptr noundef %0, ptr noundef %1) #0 {
  %3 = alloca ptr, align 8
  %4 = alloca ptr, align 8
  %5 = alloca ptr, align 8
  %6 = alloca ptr, align 8
  %7 = alloca i32, align 4
  %8 = alloca i32, align 4
  store ptr %0, ptr %4, align 8
  store ptr %1, ptr %5, align 8
  %9 = load ptr, ptr %4, align 8
  %10 = getelementptr inbounds %struct.DdManager, ptr %9, i32 0, i32 16
  %11 = load i32, ptr %10, align 4
  %12 = load ptr, ptr %4, align 8
  %13 = getelementptr inbounds %struct.DdManager, ptr %12, i32 0, i32 15
  %14 = load i32, ptr %13, align 8
  %15 = icmp sgt i32 %11, %14
  br i1 %15, label %16, label %20

16:                                               ; preds = %2
  %17 = load ptr, ptr %4, align 8
  %18 = getelementptr inbounds %struct.DdManager, ptr %17, i32 0, i32 16
  %19 = load i32, ptr %18, align 4
  br label %24

20:                                               ; preds = %2
  %21 = load ptr, ptr %4, align 8
  %22 = getelementptr inbounds %struct.DdManager, ptr %21, i32 0, i32 15
  %23 = load i32, ptr %22, align 8
  br label %24

24:                                               ; preds = %20, %16
  %25 = phi i32 [ %19, %16 ], [ %23, %20 ]
  store i32 %25, ptr %8, align 4
  %26 = load i32, ptr %8, align 4
  %27 = sext i32 %26 to i64
  %28 = mul i64 4, %27
  %29 = call noalias ptr @malloc(i64 noundef %28) #5
  store ptr %29, ptr %6, align 8
  %30 = load ptr, ptr %6, align 8
  %31 = icmp eq ptr %30, null
  br i1 %31, label %32, label %35

32:                                               ; preds = %24
  %33 = load ptr, ptr %4, align 8
  %34 = getelementptr inbounds %struct.DdManager, ptr %33, i32 0, i32 86
  store i32 1, ptr %34, align 8
  store ptr null, ptr %3, align 8
  br label %59

35:                                               ; preds = %24
  store i32 0, ptr %7, align 4
  br label %36

36:                                               ; preds = %45, %35
  %37 = load i32, ptr %7, align 4
  %38 = load i32, ptr %8, align 4
  %39 = icmp slt i32 %37, %38
  br i1 %39, label %40, label %48

40:                                               ; preds = %36
  %41 = load ptr, ptr %6, align 8
  %42 = load i32, ptr %7, align 4
  %43 = sext i32 %42 to i64
  %44 = getelementptr inbounds i32, ptr %41, i64 %43
  store i32 0, ptr %44, align 4
  br label %45

45:                                               ; preds = %40
  %46 = load i32, ptr %7, align 4
  %47 = add nsw i32 %46, 1
  store i32 %47, ptr %7, align 4
  br label %36, !llvm.loop !16

48:                                               ; preds = %36
  %49 = load ptr, ptr %5, align 8
  %50 = ptrtoint ptr %49 to i64
  %51 = and i64 %50, -2
  %52 = inttoptr i64 %51 to ptr
  %53 = load ptr, ptr %6, align 8
  call void @ddSupportStep(ptr noundef %52, ptr noundef %53)
  %54 = load ptr, ptr %5, align 8
  %55 = ptrtoint ptr %54 to i64
  %56 = and i64 %55, -2
  %57 = inttoptr i64 %56 to ptr
  call void @ddClearFlag(ptr noundef %57)
  %58 = load ptr, ptr %6, align 8
  store ptr %58, ptr %3, align 8
  br label %59

59:                                               ; preds = %48, %32
  %60 = load ptr, ptr %3, align 8
  ret ptr %60
}