; Function Attrs: nofree nounwind uwtable
define noundef ptr @Cudd_SupportIndex(ptr noundef captures(none) %0, ptr noundef %1) local_unnamed_addr #2 {
  %3 = getelementptr inbounds nuw i8, ptr %0, i64 140
  %4 = load i32, ptr %3, align 4
  %5 = getelementptr inbounds nuw i8, ptr %0, i64 136
  %6 = load i32, ptr %5, align 8
  %. = tail call i32 @llvm.smax.i32(i32 %4, i32 %6)
  %7 = sext i32 %. to i64
  %8 = shl nsw i64 %7, 2
  %9 = tail call noalias ptr @malloc(i64 noundef %8) #22
  %10 = icmp eq ptr %9, null
  br i1 %10, label %14, label %.preheader

.preheader:                                       ; preds = %2
  %11 = icmp sgt i32 %., 0
  br i1 %11, label %.lr.ph.preheader, label %._crit_edge

.lr.ph.preheader:                                 ; preds = %.preheader
  %12 = zext nneg i32 %. to i64
  %13 = shl nuw nsw i64 %12, 2
  tail call void @llvm.memset.p0.i64(ptr nonnull align 4 %9, i8 0, i64 %13, i1 false)
  br label %._crit_edge

14:                                               ; preds = %2
  %15 = getelementptr inbounds nuw i8, ptr %0, i64 624
  store i32 1, ptr %15, align 8
  br label %19

._crit_edge:                                      ; preds = %.lr.ph.preheader, %.preheader
  %16 = ptrtoint ptr %1 to i64
  %17 = and i64 %16, -2
  %18 = inttoptr i64 %17 to ptr
  tail call fastcc void @ddSupportStep(ptr noundef %18, ptr noundef %9)
  tail call fastcc void @ddClearFlag(ptr noundef %18)
  br label %19

19:                                               ; preds = %._crit_edge, %14
  ret ptr %9
}